; Function Attrs: nounwind uwtable
define ptr @l_Lean_Widget_CodeWithInfos_mergePosMap___rarg(ptr noundef %0, ptr noundef %1, ptr noundef %2, ptr noundef %3) #1 {
  %5 = ptrtoint ptr %2 to i64
  %6 = and i64 %5, 1
  %.not.i31 = icmp eq i64 %6, 0
  br i1 %.not.i31, label %10, label %7

7:                                                ; preds = %4
  %8 = lshr i64 %5, 1
  %9 = trunc i64 %8 to i32
  br label %lean_obj_tag.exit

10:                                               ; preds = %4
  %11 = getelementptr i8, ptr %2, i64 4
  %.val.i = load i32, ptr %11, align 4
  %12 = lshr i32 %.val.i, 24
  br label %lean_obj_tag.exit

lean_obj_tag.exit:                                ; preds = %7, %10
  %.0.i = phi i32 [ %9, %7 ], [ %12, %10 ]
  %13 = icmp eq i32 %.0.i, 0
  br i1 %13, label %14, label %61

14:                                               ; preds = %lean_obj_tag.exit
  %15 = ptrtoint ptr %1 to i64
  %16 = and i64 %15, 1
  %.not40 = icmp eq i64 %16, 0
  br i1 %.not40, label %17, label %lean_dec.exit24

17:                                               ; preds = %14
  %18 = load i32, ptr %1, align 4, !tbaa !4
  %19 = icmp sgt i32 %18, 1
  br i1 %19, label %20, label %22, !prof !9

20:                                               ; preds = %17
  %21 = add nsw i32 %18, -1
  store i32 %21, ptr %1, align 4, !tbaa !4
  br label %lean_dec.exit24

22:                                               ; preds = %17
  %.not.i = icmp eq i32 %18, 0
  br i1 %.not.i, label %lean_dec.exit24, label %23

23:                                               ; preds = %22
  tail call void @lean_dec_ref_cold(ptr noundef nonnull %1) #8
  br label %lean_dec.exit24

lean_dec.exit24:                                  ; preds = %23, %22, %20, %14
  %24 = getelementptr inbounds nuw i8, ptr %0, i64 8
  %25 = load ptr, ptr %24, align 8, !tbaa !10
  %26 = ptrtoint ptr %25 to i64
  %27 = and i64 %26, 1
  %.not41 = icmp eq i64 %27, 0
  br i1 %.not41, label %28, label %lean_inc.exit26

28:                                               ; preds = %lean_dec.exit24
  %.val.i32 = load i32, ptr %25, align 4, !tbaa !4
  %29 = icmp sgt i32 %.val.i32, 0
  br i1 %29, label %30, label %32, !prof !9

30:                                               ; preds = %28
  %31 = add nuw i32 %.val.i32, 1
  store i32 %31, ptr %25, align 4, !tbaa !4
  br label %lean_inc.exit26

32:                                               ; preds = %28
  %.not.i33 = icmp eq i32 %.val.i32, 0
  br i1 %.not.i33, label %lean_inc.exit26, label %33

33:                                               ; preds = %32
  tail call void @lean_inc_ref_cold(ptr noundef nonnull %25) #8
  br label %lean_inc.exit26

lean_inc.exit26:                                  ; preds = %33, %32, %30, %lean_dec.exit24
  %34 = ptrtoint ptr %0 to i64
  %35 = and i64 %34, 1
  %.not42 = icmp eq i64 %35, 0
  br i1 %.not42, label %36, label %lean_dec.exit23

36:                                               ; preds = %lean_inc.exit26
  %37 = load i32, ptr %0, align 4, !tbaa !4
  %38 = icmp sgt i32 %37, 1
  br i1 %38, label %39, label %41, !prof !9

39:                                               ; preds = %36
  %40 = add nsw i32 %37, -1
  store i32 %40, ptr %0, align 4, !tbaa !4
  br label %lean_dec.exit23

41:                                               ; preds = %36
  %.not.i27 = icmp eq i32 %37, 0
  br i1 %.not.i27, label %lean_dec.exit23, label %42

42:                                               ; preds = %41
  tail call void @lean_dec_ref_cold(ptr noundef nonnull %0) #8
  br label %lean_dec.exit23

lean_dec.exit23:                                  ; preds = %42, %41, %39, %lean_inc.exit26
  %43 = getelementptr inbounds nuw i8, ptr %25, i64 16
  %44 = load ptr, ptr %43, align 8, !tbaa !10
  %45 = ptrtoint ptr %44 to i64
  %46 = and i64 %45, 1
  %.not43 = icmp eq i64 %46, 0
  br i1 %.not43, label %47, label %lean_inc.exit25

47:                                               ; preds = %lean_dec.exit23
  %.val.i34 = load i32, ptr %44, align 4, !tbaa !4
  %48 = icmp sgt i32 %.val.i34, 0
  br i1 %48, label %49, label %51, !prof !9

49:                                               ; preds = %47
  %50 = add nuw i32 %.val.i34, 1
  store i32 %50, ptr %44, align 4, !tbaa !4
  br label %lean_inc.exit25

51:                                               ; preds = %47
  %.not.i35 = icmp eq i32 %.val.i34, 0
  br i1 %.not.i35, label %lean_inc.exit25, label %52

52:                                               ; preds = %51
  tail call void @lean_inc_ref_cold(ptr noundef nonnull %44) #8
  br label %lean_inc.exit25

lean_inc.exit25:                                  ; preds = %52, %51, %49, %lean_dec.exit23
  br i1 %.not41, label %53, label %lean_dec.exit

53:                                               ; preds = %lean_inc.exit25
  %54 = load i32, ptr %25, align 4, !tbaa !4
  %55 = icmp sgt i32 %54, 1
  br i1 %55, label %56, label %58, !prof !9

56:                                               ; preds = %53
  %57 = add nsw i32 %54, -1
  store i32 %57, ptr %25, align 4, !tbaa !4
  br label %lean_dec.exit

58:                                               ; preds = %53
  %.not.i29 = icmp eq i32 %54, 0
  br i1 %.not.i29, label %lean_dec.exit, label %59

59:                                               ; preds = %58
  tail call void @lean_dec_ref_cold(ptr noundef nonnull %25) #8
  br label %lean_dec.exit

lean_dec.exit:                                    ; preds = %59, %58, %56, %lean_inc.exit25
  %60 = tail call ptr @lean_apply_2(ptr noundef %44, ptr noundef nonnull inttoptr (i64 1 to ptr), ptr noundef %3) #8
  br label %81

61:                                               ; preds = %lean_obj_tag.exit
  %62 = ptrtoint ptr %0 to i64
  %63 = and i64 %62, 1
  %.not = icmp eq i64 %63, 0
  br i1 %.not, label %64, label %lean_inc.exit

64:                                               ; preds = %61
  %.val.i37 = load i32, ptr %0, align 4, !tbaa !4
  %65 = icmp sgt i32 %.val.i37, 0
  br i1 %65, label %66, label %68, !prof !9

66:                                               ; preds = %64
  %67 = add nuw i32 %.val.i37, 1
  store i32 %67, ptr %0, align 4, !tbaa !4
  br label %lean_inc.exit

68:                                               ; preds = %64
  %.not.i38 = icmp eq i32 %.val.i37, 0
  br i1 %.not.i38, label %lean_inc.exit, label %69

69:                                               ; preds = %68
  tail call void @lean_inc_ref_cold(ptr noundef nonnull %0) #8
  br label %lean_inc.exit

lean_inc.exit:                                    ; preds = %69, %68, %66, %61
  tail call void @lean_inc_heartbeat() #8
  %70 = tail call noalias ptr @mi_malloc_small(i64 noundef 48) #8
  %71 = icmp eq ptr %70, null
  br i1 %71, label %72, label %lean_alloc_closure.exit

72:                                               ; preds = %lean_inc.exit
  tail call void @lean_internal_panic_out_of_memory() #9
  unreachable

lean_alloc_closure.exit:                          ; preds = %lean_inc.exit
  %73 = getelementptr inbounds nuw i8, ptr %70, i64 4
  store i32 1, ptr %70, align 4, !tbaa !4
  store i32 -184549328, ptr %73, align 4
  %74 = getelementptr inbounds nuw i8, ptr %70, i64 8
  store ptr @l_Lean_Widget_CodeWithInfos_mergePosMap___rarg___lambda__1___boxed, ptr %74, align 8, !tbaa !10
  %75 = getelementptr inbounds nuw i8, ptr %70, i64 16
  store i16 4, ptr %75, align 8, !tbaa !12
  %76 = getelementptr inbounds nuw i8, ptr %70, i64 18
  store i16 3, ptr %76, align 2, !tbaa !12
  %77 = getelementptr inbounds nuw i8, ptr %70, i64 24
  store ptr %2, ptr %77, align 8, !tbaa !10
  %78 = getelementptr inbounds nuw i8, ptr %70, i64 32
  store ptr %0, ptr %78, align 8, !tbaa !10
  %79 = getelementptr inbounds nuw i8, ptr %70, i64 40
  store ptr %1, ptr %79, align 8, !tbaa !10
  %80 = tail call ptr @l_Lean_Widget_TaggedText_mapM___at_Lean_Widget_CodeWithInfos_mergePosMap___spec__2___rarg(ptr noundef %0, ptr noundef nonnull %70, ptr noundef %3)
  br label %81

81:                                               ; preds = %lean_alloc_closure.exit, %lean_dec.exit
  %.0 = phi ptr [ %60, %lean_dec.exit ], [ %80, %lean_alloc_closure.exit ]
  ret ptr %.0
}